target datalayout = "e-m:e-p270:32:32-p271:32:32-p272:64:64-i64:64-i128:128-f80:128-n8:16:32:64-S128"
target triple = "x86_64-pc-linux-gnu"

%struct.ident_t = type { i32, i32, i32, i32, ptr }

@1 = private unnamed_addr constant %struct.ident_t { i32 0, i32 514, i32 0, i32 22, ptr @0 }, align 8

; Function Attrs: alwaysinline norecurse nounwind uwtable
define internal void @_ZN4ncnnL9transposeERKNS_3MatERS0_RKNS_6OptionE.omp_outlined(ptr noalias noundef %0, ptr noalias noundef %1, ptr noundef nonnull align 4 dereferenceable(4) %2, ptr noundef nonnull align 8 dereferenceable(8) %3, ptr noundef nonnull align 4 dereferenceable(4) %4, ptr noundef nonnull align 8 dereferenceable(8) %5) #8 {
  %7 = alloca ptr, align 8
  %8 = alloca ptr, align 8
  %9 = alloca ptr, align 8
  %10 = alloca ptr, align 8
  %11 = alloca ptr, align 8
  %12 = alloca ptr, align 8
  %13 = alloca i32, align 4
  %14 = alloca i32, align 4
  %15 = alloca i32, align 4
  %16 = alloca i32, align 4
  %17 = alloca i32, align 4
  %18 = alloca i32, align 4
  %19 = alloca i32, align 4
  %20 = alloca i32, align 4
  %21 = alloca i32, align 4
  %22 = alloca ptr, align 8
  %23 = alloca i32, align 4
  store ptr %0, ptr %7, align 8, !tbaa !66
  store ptr %1, ptr %8, align 8, !tbaa !66
  store ptr %2, ptr %9, align 8, !tbaa !66
  store ptr %3, ptr %10, align 8, !tbaa !74
  store ptr %4, ptr %11, align 8, !tbaa !66
  store ptr %5, ptr %12, align 8, !tbaa !74
  %24 = load ptr, ptr %9, align 8, !tbaa !66
  %25 = load ptr, ptr %10, align 8, !tbaa !74
  %26 = load ptr, ptr %11, align 8, !tbaa !66
  %27 = load ptr, ptr %12, align 8, !tbaa !74
  call void @llvm.lifetime.start.p0(i64 4, ptr %13) #9
  call void @llvm.lifetime.start.p0(i64 4, ptr %14) #9
  %28 = load i32, ptr %24, align 4, !tbaa !38
  store i32 %28, ptr %14, align 4, !tbaa !38
  call void @llvm.lifetime.start.p0(i64 4, ptr %15) #9
  %29 = load i32, ptr %14, align 4, !tbaa !38
  %30 = sub nsw i32 %29, 0
  %31 = sdiv i32 %30, 1
  %32 = sub nsw i32 %31, 1
  store i32 %32, ptr %15, align 4, !tbaa !38
  call void @llvm.lifetime.start.p0(i64 4, ptr %16) #9
  store i32 0, ptr %16, align 4, !tbaa !38
  call void @llvm.lifetime.end.p0(i64 4, ptr %16) #9
  %33 = load i32, ptr %14, align 4, !tbaa !38
  %34 = icmp slt i32 0, %33
  br i1 %34, label %35, label %95

35:                                               ; preds = %6
  call void @llvm.lifetime.start.p0(i64 4, ptr %17) #9
  store i32 0, ptr %17, align 4, !tbaa !38
  call void @llvm.lifetime.start.p0(i64 4, ptr %18) #9
  %36 = load i32, ptr %15, align 4, !tbaa !38
  store i32 %36, ptr %18, align 4, !tbaa !38
  call void @llvm.lifetime.start.p0(i64 4, ptr %19) #9
  store i32 1, ptr %19, align 4, !tbaa !38
  call void @llvm.lifetime.start.p0(i64 4, ptr %20) #9
  store i32 0, ptr %20, align 4, !tbaa !38
  call void @llvm.lifetime.start.p0(i64 4, ptr %21) #9
  %37 = load ptr, ptr %7, align 8
  %38 = load i32, ptr %37, align 4, !tbaa !38
  call void @__kmpc_for_static_init_4(ptr @1, i32 %38, i32 34, ptr %20, ptr %17, ptr %18, ptr %19, i32 1, i32 1)
  %39 = load i32, ptr %18, align 4, !tbaa !38
  %40 = load i32, ptr %15, align 4, !tbaa !38
  %41 = icmp sgt i32 %39, %40
  br i1 %41, label %42, label %44

42:                                               ; preds = %35
  %43 = load i32, ptr %15, align 4, !tbaa !38
  br label %46

44:                                               ; preds = %35
  %45 = load i32, ptr %18, align 4, !tbaa !38
  br label %46

46:                                               ; preds = %44, %42
  %47 = phi i32 [ %43, %42 ], [ %45, %44 ]
  store i32 %47, ptr %18, align 4, !tbaa !38
  %48 = load i32, ptr %17, align 4, !tbaa !38
  store i32 %48, ptr %13, align 4, !tbaa !38
  br label %49

49:                                               ; preds = %88, %46
  %50 = load i32, ptr %13, align 4, !tbaa !38
  %51 = load i32, ptr %18, align 4, !tbaa !38
  %52 = icmp sle i32 %50, %51
  br i1 %52, label %54, label %53

53:                                               ; preds = %49
  br label %91

54:                                               ; preds = %49
  %55 = load i32, ptr %13, align 4, !tbaa !38
  %56 = mul nsw i32 %55, 1
  %57 = add nsw i32 0, %56
  store i32 %57, ptr %21, align 4, !tbaa !38
  call void @llvm.lifetime.start.p0(i64 8, ptr %22) #9
  %58 = load ptr, ptr %25, align 8, !tbaa !44
  %59 = load i32, ptr %21, align 4, !tbaa !38
  %60 = load i32, ptr %26, align 4, !tbaa !38
  %61 = mul nsw i32 %59, %60
  %62 = sext i32 %61 to i64
  %63 = getelementptr inbounds float, ptr %58, i64 %62
  store ptr %63, ptr %22, align 8, !tbaa !44
  call void @llvm.lifetime.start.p0(i64 4, ptr %23) #9
  store i32 0, ptr %23, align 4, !tbaa !38
  br label %64

64:                                               ; preds = %83, %54
  %65 = load i32, ptr %23, align 4, !tbaa !38
  %66 = load i32, ptr %26, align 4, !tbaa !38
  %67 = icmp slt i32 %65, %66
  br i1 %67, label %69, label %68

68:                                               ; preds = %64
  call void @llvm.lifetime.end.p0(i64 4, ptr %23) #9
  br label %86

69:                                               ; preds = %64
  %70 = load ptr, ptr %27, align 8, !tbaa !44
  %71 = load i32, ptr %23, align 4, !tbaa !38
  %72 = load i32, ptr %24, align 4, !tbaa !38
  %73 = mul nsw i32 %71, %72
  %74 = load i32, ptr %21, align 4, !tbaa !38
  %75 = add nsw i32 %73, %74
  %76 = sext i32 %75 to i64
  %77 = getelementptr inbounds float, ptr %70, i64 %76
  %78 = load float, ptr %77, align 4, !tbaa !46
  %79 = load ptr, ptr %22, align 8, !tbaa !44
  %80 = load i32, ptr %23, align 4, !tbaa !38
  %81 = sext i32 %80 to i64
  %82 = getelementptr inbounds float, ptr %79, i64 %81
  store float %78, ptr %82, align 4, !tbaa !46
  br label %83

83:                                               ; preds = %69
  %84 = load i32, ptr %23, align 4, !tbaa !38
  %85 = add nsw i32 %84, 1
  store i32 %85, ptr %23, align 4, !tbaa !38
  br label %64, !llvm.loop !77

86:                                               ; preds = %68
  call void @llvm.lifetime.end.p0(i64 8, ptr %22) #9
  br label %87

87:                                               ; preds = %86
  br label %88

88:                                               ; preds = %87
  %89 = load i32, ptr %13, align 4, !tbaa !38
  %90 = add nsw i32 %89, 1
  store i32 %90, ptr %13, align 4, !tbaa !38
  br label %49

91:                                               ; preds = %53
  br label %92

92:                                               ; preds = %91
  %93 = load ptr, ptr %7, align 8
  %94 = load i32, ptr %93, align 4, !tbaa !38
  call void @__kmpc_for_static_fini(ptr @1, i32 %94)
  call void @llvm.lifetime.end.p0(i64 4, ptr %21) #9
  call void @llvm.lifetime.end.p0(i64 4, ptr %20) #9
  call void @llvm.lifetime.end.p0(i64 4, ptr %19) #9
  call void @llvm.lifetime.end.p0(i64 4, ptr %18) #9
  call void @llvm.lifetime.end.p0(i64 4, ptr %17) #9
  br label %95

95:                                               ; preds = %92, %6
  call void @llvm.lifetime.end.p0(i64 4, ptr %15) #9
  call void @llvm.lifetime.end.p0(i64 4, ptr %14) #9
  call void @llvm.lifetime.end.p0(i64 4, ptr %13) #9
  ret void
}