; Function Attrs: alwaysinline norecurse nounwind uwtable
define internal void @_ZN4ncnnL9transposeERKNS_3MatERS0_RKNS_6OptionE.omp_outlined(ptr noalias noundef readonly captures(none) %0, ptr noalias readnone captures(none) %1, ptr noundef nonnull readonly align 4 captures(none) dereferenceable(4) %2, ptr noundef nonnull readonly align 8 captures(none) dereferenceable(8) %3, ptr noundef nonnull readonly align 4 captures(none) dereferenceable(4) %4, ptr noundef nonnull readonly align 8 captures(none) dereferenceable(8) %5) #7 {
  %7 = alloca i32, align 4
  %8 = alloca i32, align 4
  %9 = alloca i32, align 4
  %10 = alloca i32, align 4
  %11 = load i32, ptr %2, align 4, !tbaa !42
  %12 = icmp sgt i32 %11, 0
  br i1 %12, label %13, label %34

13:                                               ; preds = %6
  %14 = add nsw i32 %11, -1
  call void @llvm.lifetime.start.p0(i64 4, ptr nonnull %7) #8
  store i32 0, ptr %7, align 4, !tbaa !42
  call void @llvm.lifetime.start.p0(i64 4, ptr nonnull %8) #8
  store i32 %14, ptr %8, align 4, !tbaa !42
  call void @llvm.lifetime.start.p0(i64 4, ptr nonnull %9) #8
  store i32 1, ptr %9, align 4, !tbaa !42
  call void @llvm.lifetime.start.p0(i64 4, ptr nonnull %10) #8
  store i32 0, ptr %10, align 4, !tbaa !42
  %15 = load i32, ptr %0, align 4, !tbaa !42
  call void @__kmpc_for_static_init_4(ptr nonnull @1, i32 %15, i32 34, ptr nonnull %10, ptr nonnull %7, ptr nonnull %8, ptr nonnull %9, i32 1, i32 1)
  %16 = load i32, ptr %8, align 4, !tbaa !42
  %17 = call i32 @llvm.smin.i32(i32 %16, i32 %14)
  store i32 %17, ptr %8, align 4, !tbaa !42
  %18 = load i32, ptr %7, align 4, !tbaa !42
  %.not22 = icmp sgt i32 %18, %17
  br i1 %.not22, label %._crit_edge26, label %.lr.ph25

.lr.ph25:                                         ; preds = %13
  %19 = load ptr, ptr %3, align 8, !tbaa !48
  %20 = load i32, ptr %4, align 4, !tbaa !42
  %21 = icmp sgt i32 %20, 0
  %22 = load ptr, ptr %5, align 8
  br i1 %21, label %.lr.ph.us.preheader, label %._crit_edge26

.lr.ph.us.preheader:                              ; preds = %.lr.ph25
  %23 = load i32, ptr %2, align 4
  %24 = sext i32 %23 to i64
  %25 = sext i32 %18 to i64
  %26 = zext nneg i32 %20 to i64
  %27 = add nsw i32 %17, 1
  %wide.trip.count = zext nneg i32 %20 to i64
  br label %.lr.ph.us

.lr.ph.us:                                        ; preds = %.lr.ph.us.preheader, %._crit_edge.us
  %indvars.iv29 = phi i64 [ %25, %.lr.ph.us.preheader ], [ %indvars.iv.next30, %._crit_edge.us ]
  %28 = mul nsw i64 %indvars.iv29, %26
  %29 = getelementptr inbounds float, ptr %19, i64 %28
  %invariant.gep = getelementptr float, ptr %22, i64 %indvars.iv29
  br label %30

30:                                               ; preds = %.lr.ph.us, %30
  %indvars.iv = phi i64 [ 0, %.lr.ph.us ], [ %indvars.iv.next, %30 ]
  %31 = mul nsw i64 %indvars.iv, %24
  %gep = getelementptr float, ptr %invariant.gep, i64 %31
  %32 = load float, ptr %gep, align 4, !tbaa !37
  %33 = getelementptr inbounds nuw float, ptr %29, i64 %indvars.iv
  store float %32, ptr %33, align 4, !tbaa !37
  %indvars.iv.next = add nuw nsw i64 %indvars.iv, 1
  %exitcond.not = icmp eq i64 %indvars.iv.next, %wide.trip.count
  br i1 %exitcond.not, label %._crit_edge.us, label %30, !llvm.loop !119

._crit_edge.us:                                   ; preds = %30
  %indvars.iv.next30 = add nsw i64 %indvars.iv29, 1
  %lftr.wideiv = trunc i64 %indvars.iv.next30 to i32
  %exitcond32.not = icmp eq i32 %27, %lftr.wideiv
  br i1 %exitcond32.not, label %._crit_edge26, label %.lr.ph.us

._crit_edge26:                                    ; preds = %._crit_edge.us, %.lr.ph25, %13
  call void @__kmpc_for_static_fini(ptr nonnull @1, i32 %15)
  call void @llvm.lifetime.end.p0(i64 4, ptr nonnull %10) #8
  call void @llvm.lifetime.end.p0(i64 4, ptr nonnull %9) #8
  call void @llvm.lifetime.end.p0(i64 4, ptr nonnull %8) #8
  call void @llvm.lifetime.end.p0(i64 4, ptr nonnull %7) #8
  br label %34

34:                                               ; preds = %._crit_edge26, %6
  ret void
}